; Function Attrs: null_pointer_is_valid sspstrong uwtable
define internal fastcc i32 @dissect_aim_userinfo(ptr noundef %0, ptr noundef %1, i32 noundef %2, ptr noundef %3) unnamed_addr #0 {
  %5 = tail call fastcc i32 @dissect_aim_buddyname(ptr noundef %0, ptr noundef %1, i32 noundef %2, ptr noundef %3)
  %6 = load i32, ptr @hf_aim_userinfo_warninglevel, align 4
  %7 = tail call ptr @proto_tree_add_item(ptr noundef %3, i32 noundef %6, ptr noundef %0, i32 noundef %5, i32 noundef 2, i32 noundef 0)
  %8 = add i32 %5, 2
  %9 = tail call zeroext i16 @tvb_get_ntohs(ptr noundef %0, i32 noundef %8)
  %10 = load i32, ptr @hf_aim_tlvcount, align 4
  %11 = tail call ptr @proto_tree_add_item(ptr noundef %3, i32 noundef %10, ptr noundef %0, i32 noundef %8, i32 noundef 2, i32 noundef 0)
  %12 = add i32 %5, 4
  %.not.i = icmp eq i16 %9, 0
  br i1 %.not.i, label %dissect_aim_tlv_list.exit, label %.lr.ph.i

.lr.ph.i:                                         ; preds = %4, %.lr.ph.i
  %.016.i = phi i32 [ %13, %.lr.ph.i ], [ %12, %4 ]
  %.01415.i = phi i16 [ %14, %.lr.ph.i ], [ 0, %4 ]
  %13 = tail call fastcc i32 @dissect_aim_tlv(ptr noundef %0, ptr noundef %1, i32 noundef %.016.i, ptr noundef %3, ptr noundef nonnull @aim_onlinebuddy_tlvs)
  %14 = add nuw i16 %.01415.i, 1
  %exitcond.not.i = icmp eq i16 %14, %9
  br i1 %exitcond.not.i, label %dissect_aim_tlv_list.exit, label %.lr.ph.i, !llvm.loop !14

dissect_aim_tlv_list.exit:                        ; preds = %.lr.ph.i, %4
  %.0.lcssa.i = phi i32 [ %12, %4 ], [ %13, %.lr.ph.i ]
  ret i32 %.0.lcssa.i
}